; Function Attrs: nounwind uwtable
define internal fastcc noundef ptr @_readVacuumRelation() unnamed_addr #0 {
  %1 = alloca i32, align 4
  %2 = tail call noundef ptr @palloc0(i64 noundef 32) #10
  store i32 239, ptr %2, align 4
  call void @llvm.lifetime.start.p0(i64 4, ptr nonnull %1) #10
  %3 = call ptr @pg_strtok(ptr noundef nonnull %1) #10
  %4 = call ptr @nodeRead(ptr noundef null, i32 noundef 0) #10
  %5 = getelementptr inbounds nuw i8, ptr %2, i64 8
  store ptr %4, ptr %5, align 8
  %6 = call ptr @pg_strtok(ptr noundef nonnull %1) #10
  %7 = call ptr @pg_strtok(ptr noundef nonnull %1) #10
  %8 = call i64 @strtoul(ptr noundef captures(none) %7, ptr noundef null, i32 noundef 10) #10
  %9 = trunc i64 %8 to i32
  %10 = getelementptr inbounds nuw i8, ptr %2, i64 16
  store i32 %9, ptr %10, align 8
  %11 = call ptr @pg_strtok(ptr noundef nonnull %1) #10
  %12 = call ptr @nodeRead(ptr noundef null, i32 noundef 0) #10
  %13 = getelementptr inbounds nuw i8, ptr %2, i64 24
  store ptr %12, ptr %13, align 8
  call void @llvm.lifetime.end.p0(i64 4, ptr nonnull %1) #10
  ret ptr %2
}